; Function Attrs: nounwind uwtable
define dso_local void @SetSessionAuthorization(i32 noundef %0, i1 noundef zeroext %1) local_unnamed_addr #0 {
  %3 = zext i1 %1 to i8
  store i32 %0, ptr @SessionUserId, align 4
  store i8 %3, ptr @SessionUserIsSuperuser, align 1
  %.b4 = load i1, ptr @SetRoleIsActive, align 1
  br i1 %.b4, label %6, label %4

4:                                                ; preds = %2
  store i32 %0, ptr @OuterUserId, align 4
  store i32 %0, ptr @CurrentUserId, align 4
  %5 = select i1 %1, ptr @.str.63, ptr @.str.64
  tail call void @SetConfigOption(ptr noundef nonnull @.str.62, ptr noundef nonnull %5, i32 noundef 0, i32 noundef 1) #22
  br label %6

6:                                                ; preds = %4, %2
  ret void
}